; ModuleID = '37/514.c'
source_filename = "37/514.c"
target datalayout = "e-m:e-p270:32:32-p271:32:32-p272:64:64-i64:64-f80:128-n8:16:32:64-S128"
target triple = "x86_64-pc-linux-gnu"

@.str = private unnamed_addr constant [4 x i8] c"%c\0A\00", align 1
@.str.1 = private unnamed_addr constant [4 x i8] c"no\0A\00", align 1
@.str.2 = private unnamed_addr constant [3 x i8] c"%d\00", align 1
@.str.3 = private unnamed_addr constant [3 x i8] c"%s\00", align 1

; Function Attrs: noinline nounwind uwtable
define dso_local void @check(i8* %0) #0 {
  %2 = alloca i8*, align 8
  %3 = alloca i8*, align 8
  %4 = alloca i32, align 4
  %5 = alloca i32, align 4
  %6 = alloca i32, align 4
  %7 = alloca i8*, align 8
  %8 = alloca i32*, align 8
  %9 = alloca i32*, align 8
  store i8* %0, i8** %2, align 8
  store i32 0, i32* %6, align 4
  %10 = call noalias i8* @malloc(i64 26) #3
  store i8* %10, i8** %7, align 8
  store i32 0, i32* %4, align 4
  br label %11

11:                                               ; preds = %22, %1
  %12 = load i32, i32* %4, align 4
  %13 = icmp slt i32 %12, 26
  br i1 %13, label %14, label %25

14:                                               ; preds = %11
  %15 = load i32, i32* %4, align 4
  %16 = add nsw i32 %15, 97
  %17 = trunc i32 %16 to i8
  %18 = load i8*, i8** %7, align 8
  %19 = load i32, i32* %4, align 4
  %20 = sext i32 %19 to i64
  %21 = getelementptr inbounds i8, i8* %18, i64 %20
  store i8 %17, i8* %21, align 1
  br label %22

22:                                               ; preds = %14
  %23 = load i32, i32* %4, align 4
  %24 = add nsw i32 %23, 1
  store i32 %24, i32* %4, align 4
  br label %11

25:                                               ; preds = %11
  %26 = call noalias i8* @malloc(i64 104) #3
  %27 = bitcast i8* %26 to i32*
  store i32* %27, i32** %8, align 8
  %28 = load i32*, i32** %8, align 8
  store i32* %28, i32** %9, align 8
  store i32 0, i32* %4, align 4
  br label %29

29:                                               ; preds = %66, %25
  %30 = load i32, i32* %4, align 4
  %31 = icmp slt i32 %30, 26
  br i1 %31, label %32, label %69

32:                                               ; preds = %29
  %33 = load i32*, i32** %9, align 8
  %34 = load i32, i32* %4, align 4
  %35 = sext i32 %34 to i64
  %36 = getelementptr inbounds i32, i32* %33, i64 %35
  store i32 0, i32* %36, align 4
  %37 = load i8*, i8** %2, align 8
  store i8* %37, i8** %3, align 8
  br label %38

38:                                               ; preds = %62, %32
  %39 = load i8*, i8** %3, align 8
  %40 = load i8, i8* %39, align 1
  %41 = sext i8 %40 to i32
  %42 = icmp ne i32 %41, 0
  br i1 %42, label %43, label %65

43:                                               ; preds = %38
  %44 = load i8*, i8** %3, align 8
  %45 = load i8, i8* %44, align 1
  %46 = sext i8 %45 to i32
  %47 = load i8*, i8** %7, align 8
  %48 = load i32, i32* %4, align 4
  %49 = sext i32 %48 to i64
  %50 = getelementptr inbounds i8, i8* %47, i64 %49
  %51 = load i8, i8* %50, align 1
  %52 = sext i8 %51 to i32
  %53 = icmp eq i32 %46, %52
  br i1 %53, label %54, label %61

54:                                               ; preds = %43
  %55 = load i32*, i32** %9, align 8
  %56 = load i32, i32* %4, align 4
  %57 = sext i32 %56 to i64
  %58 = getelementptr inbounds i32, i32* %55, i64 %57
  %59 = load i32, i32* %58, align 4
  %60 = add nsw i32 %59, 1
  store i32 %60, i32* %58, align 4
  br label %61

61:                                               ; preds = %54, %43
  br label %62

62:                                               ; preds = %61
  %63 = load i8*, i8** %3, align 8
  %64 = getelementptr inbounds i8, i8* %63, i32 1
  store i8* %64, i8** %3, align 8
  br label %38

65:                                               ; preds = %38
  br label %66

66:                                               ; preds = %65
  %67 = load i32, i32* %4, align 4
  %68 = add nsw i32 %67, 1
  store i32 %68, i32* %4, align 4
  br label %29

69:                                               ; preds = %29
  %70 = load i8*, i8** %2, align 8
  store i8* %70, i8** %3, align 8
  br label %71

71:                                               ; preds = %92, %69
  %72 = load i8*, i8** %3, align 8
  %73 = load i8, i8* %72, align 1
  %74 = sext i8 %73 to i32
  %75 = icmp ne i32 %74, 0
  br i1 %75, label %76, label %95

76:                                               ; preds = %71
  %77 = load i32*, i32** %8, align 8
  %78 = load i8*, i8** %3, align 8
  %79 = load i8, i8* %78, align 1
  %80 = sext i8 %79 to i32
  %81 = sext i32 %80 to i64
  %82 = getelementptr inbounds i32, i32* %77, i64 %81
  %83 = getelementptr inbounds i32, i32* %82, i64 -97
  %84 = load i32, i32* %83, align 4
  %85 = icmp eq i32 %84, 1
  br i1 %85, label %86, label %91

86:                                               ; preds = %76
  store i32 1, i32* %6, align 4
  %87 = load i8*, i8** %3, align 8
  %88 = load i8, i8* %87, align 1
  %89 = sext i8 %88 to i32
  %90 = call i32 (i8*, ...) @printf(i8* getelementptr inbounds ([4 x i8], [4 x i8]* @.str, i64 0, i64 0), i32 %89)
  br label %95

91:                                               ; preds = %76
  br label %92

92:                                               ; preds = %91
  %93 = load i8*, i8** %3, align 8
  %94 = getelementptr inbounds i8, i8* %93, i32 1
  store i8* %94, i8** %3, align 8
  br label %71

95:                                               ; preds = %86, %71
  %96 = load i32, i32* %6, align 4
  %97 = icmp ne i32 %96, 1
  br i1 %97, label %98, label %100

98:                                               ; preds = %95
  %99 = call i32 (i8*, ...) @printf(i8* getelementptr inbounds ([4 x i8], [4 x i8]* @.str.1, i64 0, i64 0))
  br label %100

100:                                              ; preds = %98, %95
  ret void
}

; Function Attrs: nounwind
declare dso_local noalias i8* @malloc(i64) #1

declare dso_local i32 @printf(i8*, ...) #2

; Function Attrs: noinline nounwind uwtable
define dso_local void @main() #0 {
  %1 = alloca i32, align 4
  %2 = alloca [100 x i8*], align 16
  %3 = alloca [100 x [100000 x i8]], align 16
  %4 = alloca i32, align 4
  %5 = call i32 (i8*, ...) @__isoc99_scanf(i8* getelementptr inbounds ([3 x i8], [3 x i8]* @.str.2, i64 0, i64 0), i32* %1)
  store i32 0, i32* %4, align 4
  br label %6

6:                                                ; preds = %20, %0
  %7 = load i32, i32* %4, align 4
  %8 = load i32, i32* %1, align 4
  %9 = icmp slt i32 %7, %8
  br i1 %9, label %10, label %23

10:                                               ; preds = %6
  %11 = getelementptr inbounds [100 x [100000 x i8]], [100 x [100000 x i8]]* %3, i64 0, i64 0
  %12 = load i32, i32* %4, align 4
  %13 = sext i32 %12 to i64
  %14 = getelementptr inbounds [100000 x i8], [100000 x i8]* %11, i64 %13
  %15 = getelementptr inbounds [100000 x i8], [100000 x i8]* %14, i64 0, i64 0
  %16 = getelementptr inbounds [100 x i8*], [100 x i8*]* %2, i64 0, i64 0
  %17 = load i32, i32* %4, align 4
  %18 = sext i32 %17 to i64
  %19 = getelementptr inbounds i8*, i8** %16, i64 %18
  store i8* %15, i8** %19, align 8
  br label %20

20:                                               ; preds = %10
  %21 = load i32, i32* %4, align 4
  %22 = add nsw i32 %21, 1
  store i32 %22, i32* %4, align 4
  br label %6

23:                                               ; preds = %6
  store i32 0, i32* %4, align 4
  br label %24

24:                                               ; preds = %35, %23
  %25 = load i32, i32* %4, align 4
  %26 = load i32, i32* %1, align 4
  %27 = icmp slt i32 %25, %26
  br i1 %27, label %28, label %38

28:                                               ; preds = %24
  %29 = getelementptr inbounds [100 x i8*], [100 x i8*]* %2, i64 0, i64 0
  %30 = load i32, i32* %4, align 4
  %31 = sext i32 %30 to i64
  %32 = getelementptr inbounds i8*, i8** %29, i64 %31
  %33 = load i8*, i8** %32, align 8
  %34 = call i32 (i8*, ...) @__isoc99_scanf(i8* getelementptr inbounds ([3 x i8], [3 x i8]* @.str.3, i64 0, i64 0), i8* %33)
  br label %35

35:                                               ; preds = %28
  %36 = load i32, i32* %4, align 4
  %37 = add nsw i32 %36, 1
  store i32 %37, i32* %4, align 4
  br label %24

38:                                               ; preds = %24
  store i32 0, i32* %4, align 4
  br label %39

39:                                               ; preds = %49, %38
  %40 = load i32, i32* %4, align 4
  %41 = load i32, i32* %1, align 4
  %42 = icmp slt i32 %40, %41
  br i1 %42, label %43, label %52

43:                                               ; preds = %39
  %44 = getelementptr inbounds [100 x i8*], [100 x i8*]* %2, i64 0, i64 0
  %45 = load i32, i32* %4, align 4
  %46 = sext i32 %45 to i64
  %47 = getelementptr inbounds i8*, i8** %44, i64 %46
  %48 = load i8*, i8** %47, align 8
  call void @check(i8* %48)
  br label %49

49:                                               ; preds = %43
  %50 = load i32, i32* %4, align 4
  %51 = add nsw i32 %50, 1
  store i32 %51, i32* %4, align 4
  br label %39

52:                                               ; preds = %39
  ret void
}

declare dso_local i32 @__isoc99_scanf(i8*, ...) #2


!llvm.module.flags = !{!0}
!llvm.ident = !{!1}

!0 = !{i32 1, !"wchar_size", i32 4}
!1 = !{!"clang version 10.0.0-4ubuntu1 "}
